target datalayout = "e-m:e-p270:32:32-p271:32:32-p272:64:64-i64:64-i128:128-f80:128-n8:16:32:64-S128"
target triple = "x86_64-pc-linux-gnu"

%"struct.std::pair" = type { i32, i32 }
%"struct.llvm::IntervalMapImpl::Path::Entry" = type { ptr, i32, i32 }
%"class.llvm::IntervalMapImpl::NodeRef" = type { %"class.llvm::PointerIntPair" }
%"class.llvm::PointerIntPair" = type { %"struct.llvm::detail::PunnedPointer" }
%"struct.llvm::detail::PunnedPointer" = type { [8 x i8] }
%"class.llvm::IntervalMapImpl::Path" = type { %"class.llvm::SmallVector" }
%"class.llvm::SmallVector" = type { %"class.llvm::SmallVectorImpl", %"struct.llvm::SmallVectorStorage" }
%"class.llvm::SmallVectorImpl" = type { %"class.llvm::SmallVectorTemplateBase" }
%"class.llvm::SmallVectorTemplateBase" = type { %"class.llvm::SmallVectorTemplateCommon" }
%"class.llvm::SmallVectorTemplateCommon" = type { %"class.llvm::SmallVectorBase" }
%"class.llvm::SmallVectorBase" = type { ptr, i32, i32 }
%"struct.llvm::SmallVectorStorage" = type { [64 x i8] }

; Function Attrs: mustprogress nounwind uwtable
define linkonce_odr hidden noundef ptr @_ZN4llvm15IntervalMapImpl7NodeRef25CacheAlignedPointerTraits18getFromVoidPointerEPv(ptr noundef %0) #0 comdat align 2 {
  %2 = alloca ptr, align 8
  store ptr %0, ptr %2, align 8
  %3 = load ptr, ptr %2, align 8
  ret ptr %3
}

; Function Attrs: mustprogress nounwind uwtable
define linkonce_odr hidden noundef i64 @_ZNK4llvm6detail13PunnedPointerIPvE5asIntEv(ptr noundef nonnull align 8 dereferenceable(8) %0) #0 comdat align 2 {
  %2 = alloca ptr, align 8
  %3 = alloca i64, align 8
  store ptr %0, ptr %2, align 8
  %4 = load ptr, ptr %2, align 8
  store i64 0, ptr %3, align 8
  %5 = getelementptr inbounds nuw %"struct.llvm::detail::PunnedPointer", ptr %4, i32 0, i32 0
  %6 = getelementptr inbounds [8 x i8], ptr %5, i64 0, i64 0
  call void @llvm.memcpy.p0.p0.i64(ptr align 8 %3, ptr align 8 %6, i64 8, i1 false)
  %7 = load i64, ptr %3, align 8
  ret i64 %7
}

; Function Attrs: mustprogress nounwind uwtable
define linkonce_odr hidden noundef i64 @_ZN4llvm18PointerIntPairInfoIPvLj6ENS_15IntervalMapImpl7NodeRef25CacheAlignedPointerTraitsEE6getIntEl(i64 noundef %0) #0 comdat align 2 {
  %2 = alloca i64, align 8
  store i64 %0, ptr %2, align 8
  %3 = load i64, ptr %2, align 8
  %4 = ashr i64 %3, 0
  %5 = and i64 %4, 63
  ret i64 %5
}

; Function Attrs: mustprogress nounwind uwtable
define linkonce_odr hidden noundef ptr @_ZN4llvm18PointerIntPairInfoIPvLj6ENS_15IntervalMapImpl7NodeRef25CacheAlignedPointerTraitsEE10getPointerEl(i64 noundef %0) #0 comdat align 2 {
  %2 = alloca i64, align 8
  store i64 %0, ptr %2, align 8
  %3 = load i64, ptr %2, align 8
  %4 = and i64 %3, -64
  %5 = inttoptr i64 %4 to ptr
  %6 = call noundef ptr @_ZN4llvm15IntervalMapImpl7NodeRef25CacheAlignedPointerTraits18getFromVoidPointerEPv(ptr noundef %5)
  ret ptr %6
}

; Function Attrs: mustprogress nounwind uwtable
define linkonce_odr hidden noundef i64 @_ZNK4llvm6detail13PunnedPointerIPvEcvlEv(ptr noundef nonnull align 8 dereferenceable(8) %0) #0 comdat align 2 {
  %2 = alloca ptr, align 8
  store ptr %0, ptr %2, align 8
  %3 = load ptr, ptr %2, align 8
  %4 = call noundef i64 @_ZNK4llvm6detail13PunnedPointerIPvE5asIntEv(ptr noundef nonnull align 8 dereferenceable(8) %3)
  ret i64 %4
}

; Function Attrs: mustprogress nounwind uwtable
define linkonce_odr hidden noundef i32 @_ZNK4llvm14PointerIntPairIPvLj6EjNS_15IntervalMapImpl7NodeRef25CacheAlignedPointerTraitsENS_18PointerIntPairInfoIS1_Lj6ES4_EEE6getIntEv(ptr noundef nonnull align 8 dereferenceable(8) %0) #0 comdat align 2 {
  %2 = alloca ptr, align 8
  store ptr %0, ptr %2, align 8
  %3 = load ptr, ptr %2, align 8
  %4 = getelementptr inbounds nuw %"class.llvm::PointerIntPair", ptr %3, i32 0, i32 0
  %5 = call noundef i64 @_ZNK4llvm6detail13PunnedPointerIPvEcvlEv(ptr noundef nonnull align 8 dereferenceable(8) %4)
  %6 = call noundef i64 @_ZN4llvm18PointerIntPairInfoIPvLj6ENS_15IntervalMapImpl7NodeRef25CacheAlignedPointerTraitsEE6getIntEl(i64 noundef %5)
  %7 = trunc i64 %6 to i32
  ret i32 %7
}

; Function Attrs: mustprogress nounwind uwtable
define linkonce_odr hidden noundef ptr @_ZNK4llvm14PointerIntPairIPvLj6EjNS_15IntervalMapImpl7NodeRef25CacheAlignedPointerTraitsENS_18PointerIntPairInfoIS1_Lj6ES4_EEE10getPointerEv(ptr noundef nonnull align 8 dereferenceable(8) %0) #0 comdat align 2 {
  %2 = alloca ptr, align 8
  store ptr %0, ptr %2, align 8
  %3 = load ptr, ptr %2, align 8
  %4 = getelementptr inbounds nuw %"class.llvm::PointerIntPair", ptr %3, i32 0, i32 0
  %5 = call noundef i64 @_ZNK4llvm6detail13PunnedPointerIPvEcvlEv(ptr noundef nonnull align 8 dereferenceable(8) %4)
  %6 = call noundef ptr @_ZN4llvm18PointerIntPairInfoIPvLj6ENS_15IntervalMapImpl7NodeRef25CacheAlignedPointerTraitsEE10getPointerEl(i64 noundef %5)
  ret ptr %6
}

; Function Attrs: mustprogress nounwind uwtable
define linkonce_odr hidden noundef ptr @_ZNK4llvm25SmallVectorTemplateCommonINS_15IntervalMapImpl4Path5EntryEvE5beginEv(ptr noundef nonnull align 8 dereferenceable(16) %0) #0 comdat align 2 {
  %2 = alloca ptr, align 8
  store ptr %0, ptr %2, align 8
  %3 = load ptr, ptr %2, align 8
  %4 = getelementptr inbounds nuw %"class.llvm::SmallVectorBase", ptr %3, i32 0, i32 0
  %5 = load ptr, ptr %4, align 8
  ret ptr %5
}

; Function Attrs: mustprogress nounwind uwtable
define linkonce_odr hidden { ptr, i64 } @_ZN4llvm23SmallVectorTemplateBaseINS_15IntervalMapImpl4Path5EntryELb1EE19forward_value_paramES3_(ptr %0, i64 %1) #0 comdat align 2 {
  %3 = alloca %"struct.llvm::IntervalMapImpl::Path::Entry", align 8
  %4 = alloca %"struct.llvm::IntervalMapImpl::Path::Entry", align 8
  %5 = getelementptr inbounds nuw { ptr, i64 }, ptr %4, i32 0, i32 0
  store ptr %0, ptr %5, align 8
  %6 = getelementptr inbounds nuw { ptr, i64 }, ptr %4, i32 0, i32 1
  store i64 %1, ptr %6, align 8
  call void @llvm.memcpy.p0.p0.i64(ptr align 8 %3, ptr align 8 %4, i64 16, i1 false)
  %7 = load { ptr, i64 }, ptr %3, align 8
  ret { ptr, i64 } %7
}

; Function Attrs: mustprogress nounwind uwtable
define linkonce_odr hidden noundef i32 @_ZNK4llvm15IntervalMapImpl7NodeRef4sizeEv(ptr noundef nonnull align 8 dereferenceable(8) %0) #0 comdat align 2 {
  %2 = alloca ptr, align 8
  store ptr %0, ptr %2, align 8
  %3 = load ptr, ptr %2, align 8
  %4 = getelementptr inbounds nuw %"class.llvm::IntervalMapImpl::NodeRef", ptr %3, i32 0, i32 0
  %5 = call noundef i32 @_ZNK4llvm14PointerIntPairIPvLj6EjNS_15IntervalMapImpl7NodeRef25CacheAlignedPointerTraitsENS_18PointerIntPairInfoIS1_Lj6ES4_EEE6getIntEv(ptr noundef nonnull align 8 dereferenceable(8) %4)
  %6 = add i32 %5, 1
  ret i32 %6
}

; Function Attrs: mustprogress nounwind uwtable
define linkonce_odr hidden noundef nonnull align 8 dereferenceable(8) ptr @_ZNK4llvm15IntervalMapImpl7NodeRef7subtreeEj(ptr noundef nonnull align 8 dereferenceable(8) %0, i32 noundef %1) #0 comdat align 2 {
  %3 = alloca ptr, align 8
  %4 = alloca i32, align 4
  store ptr %0, ptr %3, align 8
  store i32 %1, ptr %4, align 4
  %5 = load ptr, ptr %3, align 8
  %6 = getelementptr inbounds nuw %"class.llvm::IntervalMapImpl::NodeRef", ptr %5, i32 0, i32 0
  %7 = call noundef ptr @_ZNK4llvm14PointerIntPairIPvLj6EjNS_15IntervalMapImpl7NodeRef25CacheAlignedPointerTraitsENS_18PointerIntPairInfoIS1_Lj6ES4_EEE10getPointerEv(ptr noundef nonnull align 8 dereferenceable(8) %6)
  %8 = load i32, ptr %4, align 4
  %9 = zext i32 %8 to i64
  %10 = getelementptr inbounds %"class.llvm::IntervalMapImpl::NodeRef", ptr %7, i64 %9
  ret ptr %10
}

; Function Attrs: mustprogress nounwind uwtable
define linkonce_odr hidden noundef nonnull align 8 dereferenceable(8) ptr @_ZNK4llvm15IntervalMapImpl4Path5Entry7subtreeEj(ptr noundef nonnull align 8 dereferenceable(16) %0, i32 noundef %1) #0 comdat align 2 {
  %3 = alloca ptr, align 8
  %4 = alloca i32, align 4
  store ptr %0, ptr %3, align 8
  store i32 %1, ptr %4, align 4
  %5 = load ptr, ptr %3, align 8
  %6 = getelementptr inbounds nuw %"struct.llvm::IntervalMapImpl::Path::Entry", ptr %5, i32 0, i32 0
  %7 = load ptr, ptr %6, align 8
  %8 = load i32, ptr %4, align 4
  %9 = zext i32 %8 to i64
  %10 = getelementptr inbounds %"class.llvm::IntervalMapImpl::NodeRef", ptr %7, i64 %9
  ret ptr %10
}

; Function Attrs: mustprogress nounwind uwtable
define linkonce_odr hidden noundef nonnull align 8 dereferenceable(16) ptr @_ZNK4llvm25SmallVectorTemplateCommonINS_15IntervalMapImpl4Path5EntryEvEixEm(ptr noundef nonnull align 8 dereferenceable(16) %0, i64 noundef %1) #0 comdat align 2 {
  %3 = alloca ptr, align 8
  %4 = alloca i64, align 8
  store ptr %0, ptr %3, align 8
  store i64 %1, ptr %4, align 8
  %5 = load ptr, ptr %3, align 8
  %6 = call noundef ptr @_ZNK4llvm25SmallVectorTemplateCommonINS_15IntervalMapImpl4Path5EntryEvE5beginEv(ptr noundef nonnull align 8 dereferenceable(16) %5)
  %7 = load i64, ptr %4, align 8
  %8 = getelementptr inbounds %"struct.llvm::IntervalMapImpl::Path::Entry", ptr %6, i64 %7
  ret ptr %8
}

; Function Attrs: mustprogress nounwind uwtable
define linkonce_odr hidden noundef ptr @_ZN4llvm15SmallVectorImplINS_15IntervalMapImpl4Path5EntryEE6insertEPS3_OS3_(ptr noundef nonnull align 8 dereferenceable(16) %0, ptr noundef %1, ptr noundef nonnull align 8 dereferenceable(16) %2) #0 comdat align 2 {
  %4 = alloca ptr, align 8
  %5 = alloca ptr, align 8
  %6 = alloca ptr, align 8
  %7 = alloca %"struct.llvm::IntervalMapImpl::Path::Entry", align 8
  %8 = alloca %"struct.llvm::IntervalMapImpl::Path::Entry", align 8
  store ptr %0, ptr %4, align 8
  store ptr %1, ptr %5, align 8
  store ptr %2, ptr %6, align 8
  %9 = load ptr, ptr %4, align 8
  %10 = load ptr, ptr %5, align 8
  %11 = load ptr, ptr %6, align 8
  call void @llvm.memcpy.p0.p0.i64(ptr align 8 %8, ptr align 8 %11, i64 16, i1 false)
  %12 = getelementptr inbounds nuw { ptr, i64 }, ptr %8, i32 0, i32 0
  %13 = load ptr, ptr %12, align 8
  %14 = getelementptr inbounds nuw { ptr, i64 }, ptr %8, i32 0, i32 1
  %15 = load i64, ptr %14, align 8
  %16 = call { ptr, i64 } @_ZN4llvm23SmallVectorTemplateBaseINS_15IntervalMapImpl4Path5EntryELb1EE19forward_value_paramES3_(ptr %13, i64 %15)
  %17 = getelementptr inbounds nuw { ptr, i64 }, ptr %7, i32 0, i32 0
  %18 = extractvalue { ptr, i64 } %16, 0
  store ptr %18, ptr %17, align 8
  %19 = getelementptr inbounds nuw { ptr, i64 }, ptr %7, i32 0, i32 1
  %20 = extractvalue { ptr, i64 } %16, 1
  store i64 %20, ptr %19, align 8
  %21 = call noundef ptr @_ZN4llvm15SmallVectorImplINS_15IntervalMapImpl4Path5EntryEE15insert_one_implIS3_EEPS3_S6_OT_(ptr noundef nonnull align 8 dereferenceable(16) %9, ptr noundef %10, ptr noundef nonnull align 8 dereferenceable(16) %7)
  ret ptr %21
}

; Function Attrs: mustprogress nounwind uwtable
define linkonce_odr hidden void @_ZN4llvm15IntervalMapImpl4Path5EntryC2ENS0_7NodeRefEj(ptr noundef nonnull align 8 dereferenceable(16) %0, i64 %1, i32 noundef %2) unnamed_addr #0 comdat align 2 {
  %4 = alloca %"class.llvm::IntervalMapImpl::NodeRef", align 8
  %5 = alloca ptr, align 8
  %6 = alloca i32, align 4
  %7 = getelementptr inbounds nuw %"class.llvm::IntervalMapImpl::NodeRef", ptr %4, i32 0, i32 0
  %8 = getelementptr inbounds nuw %"class.llvm::PointerIntPair", ptr %7, i32 0, i32 0
  %9 = getelementptr inbounds nuw %"struct.llvm::detail::PunnedPointer", ptr %8, i32 0, i32 0
  store i64 %1, ptr %9, align 8
  store ptr %0, ptr %5, align 8
  store i32 %2, ptr %6, align 4
  %10 = load ptr, ptr %5, align 8
  %11 = getelementptr inbounds nuw %"struct.llvm::IntervalMapImpl::Path::Entry", ptr %10, i32 0, i32 0
  %12 = call noundef nonnull align 8 dereferenceable(8) ptr @_ZNK4llvm15IntervalMapImpl7NodeRef7subtreeEj(ptr noundef nonnull align 8 dereferenceable(8) %4, i32 noundef 0)
  store ptr %12, ptr %11, align 8
  %13 = getelementptr inbounds nuw %"struct.llvm::IntervalMapImpl::Path::Entry", ptr %10, i32 0, i32 1
  %14 = call noundef i32 @_ZNK4llvm15IntervalMapImpl7NodeRef4sizeEv(ptr noundef nonnull align 8 dereferenceable(8) %4)
  store i32 %14, ptr %13, align 8
  %15 = getelementptr inbounds nuw %"struct.llvm::IntervalMapImpl::Path::Entry", ptr %10, i32 0, i32 2
  %16 = load i32, ptr %6, align 4
  store i32 %16, ptr %15, align 4
  ret void
}

; Function Attrs: mustprogress nounwind uwtable
define linkonce_odr hidden noundef nonnull align 8 dereferenceable(8) ptr @_ZNK4llvm15IntervalMapImpl4Path7subtreeEj(ptr noundef nonnull align 8 dereferenceable(80) %0, i32 noundef %1) #0 comdat align 2 {
  %3 = alloca ptr, align 8
  %4 = alloca i32, align 4
  store ptr %0, ptr %3, align 8
  store i32 %1, ptr %4, align 4
  %5 = load ptr, ptr %3, align 8
  %6 = getelementptr inbounds nuw %"class.llvm::IntervalMapImpl::Path", ptr %5, i32 0, i32 0
  %7 = load i32, ptr %4, align 4
  %8 = zext i32 %7 to i64
  %9 = call noundef nonnull align 8 dereferenceable(16) ptr @_ZNK4llvm25SmallVectorTemplateCommonINS_15IntervalMapImpl4Path5EntryEvEixEm(ptr noundef nonnull align 8 dereferenceable(16) %6, i64 noundef %8)
  %10 = getelementptr inbounds nuw %"class.llvm::IntervalMapImpl::Path", ptr %5, i32 0, i32 0
  %11 = load i32, ptr %4, align 4
  %12 = zext i32 %11 to i64
  %13 = call noundef nonnull align 8 dereferenceable(16) ptr @_ZNK4llvm25SmallVectorTemplateCommonINS_15IntervalMapImpl4Path5EntryEvEixEm(ptr noundef nonnull align 8 dereferenceable(16) %10, i64 noundef %12)
  %14 = getelementptr inbounds nuw %"struct.llvm::IntervalMapImpl::Path::Entry", ptr %13, i32 0, i32 2
  %15 = load i32, ptr %14, align 4
  %16 = call noundef nonnull align 8 dereferenceable(8) ptr @_ZNK4llvm15IntervalMapImpl4Path5Entry7subtreeEj(ptr noundef nonnull align 8 dereferenceable(16) %9, i32 noundef %15)
  ret ptr %16
}

; Function Attrs: mustprogress nounwind uwtable
define linkonce_odr hidden noundef ptr @_ZN4llvm25SmallVectorTemplateCommonINS_15IntervalMapImpl4Path5EntryEvE5beginEv(ptr noundef nonnull align 8 dereferenceable(16) %0) #0 comdat align 2 {
  %2 = alloca ptr, align 8
  store ptr %0, ptr %2, align 8
  %3 = load ptr, ptr %2, align 8
  %4 = getelementptr inbounds nuw %"class.llvm::SmallVectorBase", ptr %3, i32 0, i32 0
  %5 = load ptr, ptr %4, align 8
  ret ptr %5
}

; Function Attrs: mustprogress nounwind uwtable
define linkonce_odr hidden noundef nonnull align 8 dereferenceable(16) ptr @_ZN4llvm25SmallVectorTemplateCommonINS_15IntervalMapImpl4Path5EntryEvE5frontEv(ptr noundef nonnull align 8 dereferenceable(16) %0) #0 comdat align 2 {
  %2 = alloca ptr, align 8
  store ptr %0, ptr %2, align 8
  %3 = load ptr, ptr %2, align 8
  %4 = call noundef ptr @_ZN4llvm25SmallVectorTemplateCommonINS_15IntervalMapImpl4Path5EntryEvE5beginEv(ptr noundef nonnull align 8 dereferenceable(16) %3)
  %5 = getelementptr inbounds %"struct.llvm::IntervalMapImpl::Path::Entry", ptr %4, i64 0
  ret ptr %5
}

; Function Attrs: mustprogress nounwind uwtable
define linkonce_odr hidden void @_ZN4llvm15IntervalMapImpl4Path5EntryC2EPvjj(ptr noundef nonnull align 8 dereferenceable(16) %0, ptr noundef %1, i32 noundef %2, i32 noundef %3) unnamed_addr #0 comdat align 2 {
  %5 = alloca ptr, align 8
  %6 = alloca ptr, align 8
  %7 = alloca i32, align 4
  %8 = alloca i32, align 4
  store ptr %0, ptr %5, align 8
  store ptr %1, ptr %6, align 8
  store i32 %2, ptr %7, align 4
  store i32 %3, ptr %8, align 4
  %9 = load ptr, ptr %5, align 8
  %10 = getelementptr inbounds nuw %"struct.llvm::IntervalMapImpl::Path::Entry", ptr %9, i32 0, i32 0
  %11 = load ptr, ptr %6, align 8
  store ptr %11, ptr %10, align 8
  %12 = getelementptr inbounds nuw %"struct.llvm::IntervalMapImpl::Path::Entry", ptr %9, i32 0, i32 1
  %13 = load i32, ptr %7, align 4
  store i32 %13, ptr %12, align 8
  %14 = getelementptr inbounds nuw %"struct.llvm::IntervalMapImpl::Path::Entry", ptr %9, i32 0, i32 2
  %15 = load i32, ptr %8, align 4
  store i32 %15, ptr %14, align 4
  ret void
}

; Function Attrs: mustprogress nounwind uwtable
define dso_local void @_ZN4llvm15IntervalMapImpl4Path11replaceRootEPvjSt4pairIjjE(ptr noundef nonnull align 8 dereferenceable(80) %0, ptr noundef %1, i32 noundef %2, i64 %3) #0 align 2 {
  %5 = alloca %"struct.std::pair", align 4
  %6 = alloca ptr, align 8
  %7 = alloca ptr, align 8
  %8 = alloca i32, align 4
  %9 = alloca %"struct.llvm::IntervalMapImpl::Path::Entry", align 8
  %10 = alloca %"struct.llvm::IntervalMapImpl::Path::Entry", align 8
  %11 = alloca %"class.llvm::IntervalMapImpl::NodeRef", align 8
  store i64 %3, ptr %5, align 4
  store ptr %0, ptr %6, align 8
  store ptr %1, ptr %7, align 8
  store i32 %2, ptr %8, align 4
  %12 = load ptr, ptr %6, align 8
  %13 = load ptr, ptr %7, align 8
  %14 = load i32, ptr %8, align 4
  %15 = getelementptr inbounds nuw %"struct.std::pair", ptr %5, i32 0, i32 0
  %16 = load i32, ptr %15, align 4
  call void @_ZN4llvm15IntervalMapImpl4Path5EntryC2EPvjj(ptr noundef nonnull align 8 dereferenceable(16) %9, ptr noundef %13, i32 noundef %14, i32 noundef %16)
  %17 = getelementptr inbounds nuw %"class.llvm::IntervalMapImpl::Path", ptr %12, i32 0, i32 0
  %18 = call noundef nonnull align 8 dereferenceable(16) ptr @_ZN4llvm25SmallVectorTemplateCommonINS_15IntervalMapImpl4Path5EntryEvE5frontEv(ptr noundef nonnull align 8 dereferenceable(16) %17)
  call void @llvm.memcpy.p0.p0.i64(ptr align 8 %18, ptr align 8 %9, i64 16, i1 false)
  %19 = getelementptr inbounds nuw %"class.llvm::IntervalMapImpl::Path", ptr %12, i32 0, i32 0
  %20 = getelementptr inbounds nuw %"class.llvm::IntervalMapImpl::Path", ptr %12, i32 0, i32 0
  %21 = call noundef ptr @_ZN4llvm25SmallVectorTemplateCommonINS_15IntervalMapImpl4Path5EntryEvE5beginEv(ptr noundef nonnull align 8 dereferenceable(16) %20)
  %22 = getelementptr inbounds %"struct.llvm::IntervalMapImpl::Path::Entry", ptr %21, i64 1
  %23 = call noundef nonnull align 8 dereferenceable(8) ptr @_ZNK4llvm15IntervalMapImpl4Path7subtreeEj(ptr noundef nonnull align 8 dereferenceable(80) %12, i32 noundef 0)
  call void @llvm.memcpy.p0.p0.i64(ptr align 8 %11, ptr align 8 %23, i64 8, i1 false)
  %24 = getelementptr inbounds nuw %"struct.std::pair", ptr %5, i32 0, i32 1
  %25 = load i32, ptr %24, align 4
  %26 = getelementptr inbounds nuw %"class.llvm::IntervalMapImpl::NodeRef", ptr %11, i32 0, i32 0
  %27 = getelementptr inbounds nuw %"class.llvm::PointerIntPair", ptr %26, i32 0, i32 0
  %28 = getelementptr inbounds nuw %"struct.llvm::detail::PunnedPointer", ptr %27, i32 0, i32 0
  %29 = load i64, ptr %28, align 8
  call void @_ZN4llvm15IntervalMapImpl4Path5EntryC2ENS0_7NodeRefEj(ptr noundef nonnull align 8 dereferenceable(16) %10, i64 %29, i32 noundef %25)
  %30 = call noundef ptr @_ZN4llvm15SmallVectorImplINS_15IntervalMapImpl4Path5EntryEE6insertEPS3_OS3_(ptr noundef nonnull align 8 dereferenceable(16) %19, ptr noundef %22, ptr noundef nonnull align 8 dereferenceable(16) %10)
  ret void
}