; Function Attrs: mustprogress nounwind uwtable
define dso_local void @_ZN4llvm15IntervalMapImpl4Path11replaceRootEPvjSt4pairIjjE(ptr noundef nonnull align 8 dereferenceable(80) %0, ptr noundef %1, i32 noundef %2, i64 %3) local_unnamed_addr #0 align 2 {
  %5 = alloca %"struct.llvm::IntervalMapImpl::Path::Entry", align 8
  %.sroa.02.0.extract.trunc = trunc i64 %3 to i32
  %.sroa.2.0.extract.shift = and i64 %3, -4294967296
  %6 = load ptr, ptr %0, align 8
  store ptr %1, ptr %6, align 8
  %.sroa.24.0..sroa_idx = getelementptr inbounds i8, ptr %6, i64 8
  store i32 %2, ptr %.sroa.24.0..sroa_idx, align 8
  %.sroa.3.0..sroa_idx = getelementptr inbounds i8, ptr %6, i64 12
  store i32 %.sroa.02.0.extract.trunc, ptr %.sroa.3.0..sroa_idx, align 4
  %7 = load ptr, ptr %0, align 8
  %8 = getelementptr inbounds i8, ptr %7, i64 16
  %9 = getelementptr inbounds nuw i8, ptr %7, i64 12
  %10 = load i32, ptr %9, align 4
  %11 = load ptr, ptr %7, align 8
  %12 = zext i32 %10 to i64
  %13 = getelementptr inbounds %"class.llvm::IntervalMapImpl::NodeRef", ptr %11, i64 %12
  %.sroa.0.0.copyload = load i64, ptr %13, align 8
  %14 = and i64 %.sroa.0.0.copyload, -64
  %15 = inttoptr i64 %14 to ptr
  %16 = and i64 %.sroa.0.0.copyload, 63
  %.sroa.2.8.insert.ext = add nuw nsw i64 %16, 1
  call void @llvm.lifetime.start.p0(i64 16, ptr nonnull %5)
  %.sroa.2.8.insert.insert = or disjoint i64 %.sroa.2.8.insert.ext, %.sroa.2.0.extract.shift
  store ptr %15, ptr %5, align 8
  %17 = getelementptr inbounds nuw i8, ptr %5, i64 8
  store i64 %.sroa.2.8.insert.insert, ptr %17, align 8
  %18 = call noundef ptr @_ZN4llvm15SmallVectorImplINS_15IntervalMapImpl4Path5EntryEE15insert_one_implIS3_EEPS3_S6_OT_(ptr noundef nonnull align 8 dereferenceable(16) %0, ptr noundef nonnull %8, ptr noundef nonnull align 8 dereferenceable(16) %5)
  call void @llvm.lifetime.end.p0(i64 16, ptr nonnull %5)
  ret void
}